; ModuleID = '61/209.c'
source_filename = "61/209.c"
target datalayout = "e-m:e-p270:32:32-p271:32:32-p272:64:64-i64:64-f80:128-n8:16:32:64-S128"
target triple = "x86_64-pc-linux-gnu"

@.str = private unnamed_addr constant [3 x i8] c"%d\00", align 1
@.str.1 = private unnamed_addr constant [4 x i8] c"%d\0A\00", align 1

; Function Attrs: noinline nounwind uwtable
define dso_local i32 @main() #0 {
  %1 = alloca i32, align 4
  %2 = alloca [21 x i32], align 16
  %3 = alloca i32, align 4
  %4 = alloca i32, align 4
  %5 = alloca [21 x i32], align 16
  store i32 0, i32* %1, align 4
  %6 = getelementptr inbounds [21 x i32], [21 x i32]* %2, i64 0, i64 1
  store i32 1, i32* %6, align 4
  %7 = getelementptr inbounds [21 x i32], [21 x i32]* %2, i64 0, i64 2
  store i32 1, i32* %7, align 8
  store i32 3, i32* %3, align 4
  br label %8

8:                                                ; preds = %26, %0
  %9 = load i32, i32* %3, align 4
  %10 = icmp sle i32 %9, 20
  br i1 %10, label %11, label %29

11:                                               ; preds = %8
  %12 = load i32, i32* %3, align 4
  %13 = sub nsw i32 %12, 1
  %14 = sext i32 %13 to i64
  %15 = getelementptr inbounds [21 x i32], [21 x i32]* %2, i64 0, i64 %14
  %16 = load i32, i32* %15, align 4
  %17 = load i32, i32* %3, align 4
  %18 = sub nsw i32 %17, 2
  %19 = sext i32 %18 to i64
  %20 = getelementptr inbounds [21 x i32], [21 x i32]* %2, i64 0, i64 %19
  %21 = load i32, i32* %20, align 4
  %22 = add nsw i32 %16, %21
  %23 = load i32, i32* %3, align 4
  %24 = sext i32 %23 to i64
  %25 = getelementptr inbounds [21 x i32], [21 x i32]* %2, i64 0, i64 %24
  store i32 %22, i32* %25, align 4
  br label %26

26:                                               ; preds = %11
  %27 = load i32, i32* %3, align 4
  %28 = add nsw i32 %27, 1
  store i32 %28, i32* %3, align 4
  br label %8

29:                                               ; preds = %8
  %30 = call i32 (i8*, ...) @__isoc99_scanf(i8* getelementptr inbounds ([3 x i8], [3 x i8]* @.str, i64 0, i64 0), i32* %4)
  store i32 1, i32* %3, align 4
  br label %31

31:                                               ; preds = %40, %29
  %32 = load i32, i32* %3, align 4
  %33 = load i32, i32* %4, align 4
  %34 = icmp sle i32 %32, %33
  br i1 %34, label %35, label %43

35:                                               ; preds = %31
  %36 = load i32, i32* %3, align 4
  %37 = sext i32 %36 to i64
  %38 = getelementptr inbounds [21 x i32], [21 x i32]* %5, i64 0, i64 %37
  %39 = call i32 (i8*, ...) @__isoc99_scanf(i8* getelementptr inbounds ([3 x i8], [3 x i8]* @.str, i64 0, i64 0), i32* %38)
  br label %40

40:                                               ; preds = %35
  %41 = load i32, i32* %3, align 4
  %42 = add nsw i32 %41, 1
  store i32 %42, i32* %3, align 4
  br label %31

43:                                               ; preds = %31
  store i32 1, i32* %3, align 4
  br label %44

44:                                               ; preds = %58, %43
  %45 = load i32, i32* %3, align 4
  %46 = load i32, i32* %4, align 4
  %47 = sub nsw i32 %46, 1
  %48 = icmp sle i32 %45, %47
  br i1 %48, label %49, label %61

49:                                               ; preds = %44
  %50 = load i32, i32* %3, align 4
  %51 = sext i32 %50 to i64
  %52 = getelementptr inbounds [21 x i32], [21 x i32]* %5, i64 0, i64 %51
  %53 = load i32, i32* %52, align 4
  %54 = sext i32 %53 to i64
  %55 = getelementptr inbounds [21 x i32], [21 x i32]* %2, i64 0, i64 %54
  %56 = load i32, i32* %55, align 4
  %57 = call i32 (i8*, ...) @printf(i8* getelementptr inbounds ([4 x i8], [4 x i8]* @.str.1, i64 0, i64 0), i32 %56)
  br label %58

58:                                               ; preds = %49
  %59 = load i32, i32* %3, align 4
  %60 = add nsw i32 %59, 1
  store i32 %60, i32* %3, align 4
  br label %44

61:                                               ; preds = %44
  %62 = load i32, i32* %4, align 4
  %63 = sext i32 %62 to i64
  %64 = getelementptr inbounds [21 x i32], [21 x i32]* %5, i64 0, i64 %63
  %65 = load i32, i32* %64, align 4
  %66 = sext i32 %65 to i64
  %67 = getelementptr inbounds [21 x i32], [21 x i32]* %2, i64 0, i64 %66
  %68 = load i32, i32* %67, align 4
  %69 = call i32 (i8*, ...) @printf(i8* getelementptr inbounds ([3 x i8], [3 x i8]* @.str, i64 0, i64 0), i32 %68)
  %70 = load i32, i32* %1, align 4
  ret i32 %70
}

declare dso_local i32 @__isoc99_scanf(i8*, ...) #1

declare dso_local i32 @printf(i8*, ...) #1


!llvm.module.flags = !{!0}
!llvm.ident = !{!1}

!0 = !{i32 1, !"wchar_size", i32 4}
!1 = !{!"clang version 10.0.0-4ubuntu1 "}
