; ModuleID = 'source-C-CXX/60/209.c'
source_filename = "source-C-CXX/60/209.c"
target datalayout = "e-m:e-p270:32:32-p271:32:32-p272:64:64-i64:64-f80:128-n8:16:32:64-S128"
target triple = "x86_64-pc-linux-gnu"

@.str = private unnamed_addr constant [3 x i8] c"%d\00", align 1
@.str.1 = private unnamed_addr constant [4 x i8] c"%d\0A\00", align 1

; Function Attrs: nofree nounwind sspstrong uwtable
define dso_local i32 @main() local_unnamed_addr #0 {
  %1 = alloca [21 x i32], align 16
  %2 = alloca i32, align 4
  %3 = alloca [21 x i32], align 16
  %4 = bitcast [21 x i32]* %1 to i8*
  call void @llvm.lifetime.start.p0i8(i64 84, i8* nonnull %4) #3
  %5 = bitcast i32* %2 to i8*
  call void @llvm.lifetime.start.p0i8(i64 4, i8* nonnull %5) #3
  %6 = bitcast [21 x i32]* %3 to i8*
  call void @llvm.lifetime.start.p0i8(i64 84, i8* nonnull %6) #3
  %7 = getelementptr inbounds [21 x i32], [21 x i32]* %1, i64 0, i64 1
  %8 = bitcast i32* %7 to <4 x i32>*
  store <4 x i32> <i32 1, i32 1, i32 2, i32 3>, <4 x i32>* %8, align 4, !tbaa !5
  %9 = getelementptr inbounds [21 x i32], [21 x i32]* %1, i64 0, i64 5
  %10 = bitcast i32* %9 to <4 x i32>*
  store <4 x i32> <i32 5, i32 8, i32 13, i32 21>, <4 x i32>* %10, align 4, !tbaa !5
  %11 = getelementptr inbounds [21 x i32], [21 x i32]* %1, i64 0, i64 9
  %12 = bitcast i32* %11 to <4 x i32>*
  store <4 x i32> <i32 34, i32 55, i32 89, i32 144>, <4 x i32>* %12, align 4, !tbaa !5
  %13 = getelementptr inbounds [21 x i32], [21 x i32]* %1, i64 0, i64 13
  %14 = bitcast i32* %13 to <4 x i32>*
  store <4 x i32> <i32 233, i32 377, i32 610, i32 987>, <4 x i32>* %14, align 4, !tbaa !5
  %15 = getelementptr inbounds [21 x i32], [21 x i32]* %1, i64 0, i64 17
  %16 = bitcast i32* %15 to <4 x i32>*
  store <4 x i32> <i32 1597, i32 2584, i32 4181, i32 6765>, <4 x i32>* %16, align 4, !tbaa !5
  %17 = call i32 (i8*, ...) @__isoc99_scanf(i8* getelementptr inbounds ([3 x i8], [3 x i8]* @.str, i64 0, i64 0), i32* nonnull %2)
  %18 = load i32, i32* %2, align 4, !tbaa !5
  %19 = icmp slt i32 %18, 1
  br i1 %19, label %42, label %22

20:                                               ; preds = %22
  %21 = icmp sgt i32 %27, 1
  br i1 %21, label %30, label %42

22:                                               ; preds = %0, %22
  %23 = phi i64 [ %26, %22 ], [ 1, %0 ]
  %24 = getelementptr inbounds [21 x i32], [21 x i32]* %3, i64 0, i64 %23
  %25 = call i32 (i8*, ...) @__isoc99_scanf(i8* getelementptr inbounds ([3 x i8], [3 x i8]* @.str, i64 0, i64 0), i32* nonnull %24)
  %26 = add nuw nsw i64 %23, 1
  %27 = load i32, i32* %2, align 4, !tbaa !5
  %28 = sext i32 %27 to i64
  %29 = icmp slt i64 %23, %28
  br i1 %29, label %22, label %20, !llvm.loop !9

30:                                               ; preds = %20, %30
  %31 = phi i64 [ %38, %30 ], [ 1, %20 ]
  %32 = getelementptr inbounds [21 x i32], [21 x i32]* %3, i64 0, i64 %31
  %33 = load i32, i32* %32, align 4, !tbaa !5
  %34 = sext i32 %33 to i64
  %35 = getelementptr inbounds [21 x i32], [21 x i32]* %1, i64 0, i64 %34
  %36 = load i32, i32* %35, align 4, !tbaa !5
  %37 = call i32 (i8*, ...) @printf(i8* nonnull dereferenceable(1) getelementptr inbounds ([4 x i8], [4 x i8]* @.str.1, i64 0, i64 0), i32 %36)
  %38 = add nuw nsw i64 %31, 1
  %39 = load i32, i32* %2, align 4, !tbaa !5
  %40 = sext i32 %39 to i64
  %41 = icmp slt i64 %38, %40
  br i1 %41, label %30, label %42, !llvm.loop !11

42:                                               ; preds = %30, %20, %0
  %43 = phi i32 [ %27, %20 ], [ %18, %0 ], [ %39, %30 ]
  %44 = sext i32 %43 to i64
  %45 = getelementptr inbounds [21 x i32], [21 x i32]* %3, i64 0, i64 %44
  %46 = load i32, i32* %45, align 4, !tbaa !5
  %47 = sext i32 %46 to i64
  %48 = getelementptr inbounds [21 x i32], [21 x i32]* %1, i64 0, i64 %47
  %49 = load i32, i32* %48, align 4, !tbaa !5
  %50 = call i32 (i8*, ...) @printf(i8* nonnull dereferenceable(1) getelementptr inbounds ([3 x i8], [3 x i8]* @.str, i64 0, i64 0), i32 %49)
  call void @llvm.lifetime.end.p0i8(i64 84, i8* nonnull %6) #3
  call void @llvm.lifetime.end.p0i8(i64 4, i8* nonnull %5) #3
  call void @llvm.lifetime.end.p0i8(i64 84, i8* nonnull %4) #3
  ret i32 0
}

; Function Attrs: argmemonly mustprogress nofree nosync nounwind willreturn
declare void @llvm.lifetime.start.p0i8(i64 immarg, i8* nocapture) #1

; Function Attrs: nofree nounwind
declare noundef i32 @__isoc99_scanf(i8* nocapture noundef readonly, ...) local_unnamed_addr #2

; Function Attrs: nofree nounwind
declare noundef i32 @printf(i8* nocapture noundef readonly, ...) local_unnamed_addr #2

; Function Attrs: argmemonly mustprogress nofree nosync nounwind willreturn
declare void @llvm.lifetime.end.p0i8(i64 immarg, i8* nocapture) #1


!llvm.module.flags = !{!0, !1, !2, !3}
!llvm.ident = !{!4}

!0 = !{i32 1, !"wchar_size", i32 4}
!1 = !{i32 7, !"PIC Level", i32 2}
!2 = !{i32 7, !"PIE Level", i32 2}
!3 = !{i32 7, !"uwtable", i32 1}
!4 = !{!"clang version 13.0.0"}
!5 = !{!6, !6, i64 0}
!6 = !{!"int", !7, i64 0}
!7 = !{!"omnipotent char", !8, i64 0}
!8 = !{!"Simple C/C++ TBAA"}
!9 = distinct !{!9, !10}
!10 = !{!"llvm.loop.mustprogress"}
!11 = distinct !{!11, !10}
